---
triple:          'arm64-apple-darwin'
binary-path:     a.out
relocations:
  - { offsetInCU: 0x4692, offset: 0x4692, size: 0x8, addend: 0x0, symName: __ZNSt3__124__put_character_sequenceB7v160006IcNS_11char_traitsIcEEEERNS_13basic_ostreamIT_T0_EES7_PKS4_m, symObjAddr: 0x3184, symBinAddr: 0x10000586C, symSize: 0x1F4 }
  - { offsetInCU: 0x7173, offset: 0x7173, size: 0x8, addend: 0x0, symName: __ZNSt3__1lsB7v160006INS_11char_traitsIcEEEERNS_13basic_ostreamIcT_EES6_PKc, symObjAddr: 0x220, symBinAddr: 0x100002908, symSize: 0x48 }
  - { offsetInCU: 0x71B9, offset: 0x71B9, size: 0x8, addend: 0x0, symName: __ZNSt3__1lsB7v160006IcNS_11char_traitsIcEENS_9allocatorIcEEEERNS_13basic_ostreamIT_T0_EES9_RKNS_12basic_stringIS6_S7_T1_EE, symObjAddr: 0x268, symBinAddr: 0x100002950, symSize: 0x4C }
  - { offsetInCU: 0x7211, offset: 0x7211, size: 0x8, addend: 0x0, symName: __ZNSt3__14endlB7v160006IcNS_11char_traitsIcEEEERNS_13basic_ostreamIT_T0_EES7_, symObjAddr: 0x2E0, symBinAddr: 0x1000029C8, symSize: 0x58 }
  - { offsetInCU: 0x7251, offset: 0x7251, size: 0x8, addend: 0x0, symName: __ZNSt3__1lsB7v160006INS_11char_traitsIcEEEERNS_13basic_ostreamIcT_EES6_c, symObjAddr: 0x35C, symBinAddr: 0x100002A44, symSize: 0x34 }
  - { offsetInCU: 0x7297, offset: 0x7297, size: 0x8, addend: 0x0, symName: __ZNSt3__119__debug_db_insert_cB7v160006INS_12basic_stringIcNS_11char_traitsIcEENS_9allocatorIcEEEEEEvPT_, symObjAddr: 0x11B0, symBinAddr: 0x100003898, symSize: 0x10 }
  - { offsetInCU: 0x72C8, offset: 0x72C8, size: 0x8, addend: 0x0, symName: __ZNSt3__130__libcpp_is_constant_evaluatedB7v160006Ev, symObjAddr: 0x1350, symBinAddr: 0x100003A38, symSize: 0xC }
  - { offsetInCU: 0x72E5, offset: 0x72E5, size: 0x8, addend: 0x0, symName: __ZNSt3__117__libcpp_allocateB7v160006Emm, symObjAddr: 0x1648, symBinAddr: 0x100003D30, symSize: 0x28 }
  - { offsetInCU: 0x7322, offset: 0x7322, size: 0x8, addend: 0x0, symName: __ZNSt3__121__libcpp_operator_newB7v160006IJmEEEPvDpT_, symObjAddr: 0x1684, symBinAddr: 0x100003D6C, symSize: 0x24 }
  - { offsetInCU: 0x735B, offset: 0x735B, size: 0x8, addend: 0x0, symName: __ZNSt3__112__to_addressB7v160006IP4nodeEEPT_S4_, symObjAddr: 0x1950, symBinAddr: 0x100004038, symSize: 0x14 }
  - { offsetInCU: 0x7390, offset: 0x7390, size: 0x8, addend: 0x0, symName: __ZNSt3__13maxB7v160006ImEERKT_S3_S3_, symObjAddr: 0x1D60, symBinAddr: 0x100004448, symSize: 0x2C }
  - { offsetInCU: 0x73D3, offset: 0x73D3, size: 0x8, addend: 0x0, symName: __ZNSt3__13minB7v160006ImEERKT_S3_S3_, symObjAddr: 0x1D8C, symBinAddr: 0x100004474, symSize: 0x2C }
  - { offsetInCU: 0x7617, offset: 0x7617, size: 0x8, addend: 0x0, symName: __ZNSt3__13minB7v160006ImNS_6__lessImmEEEERKT_S5_S5_T0_, symObjAddr: 0x1E18, symBinAddr: 0x100004500, symSize: 0x54 }
  - { offsetInCU: 0x76AC, offset: 0x76AC, size: 0x8, addend: 0x0, symName: __ZNSt3__120__throw_length_errorB7v160006EPKc, symObjAddr: 0x1EF4, symBinAddr: 0x1000045DC, symSize: 0x64 }
  - { offsetInCU: 0x76D4, offset: 0x76D4, size: 0x8, addend: 0x0, symName: __ZNSt3__13maxB7v160006ImNS_6__lessImmEEEERKT_S5_S5_T0_, symObjAddr: 0x2038, symBinAddr: 0x100004720, symSize: 0x54 }
  - { offsetInCU: 0x772E, offset: 0x772E, size: 0x8, addend: 0x0, symName: __ZNSt3__119__allocate_at_leastB7v160006INS_9allocatorIP4nodeEEEENS_19__allocation_resultINS_16allocator_traitsIT_E7pointerEEERS7_m, symObjAddr: 0x219C, symBinAddr: 0x100004884, symSize: 0x40 }
  - { offsetInCU: 0x7771, offset: 0x7771, size: 0x8, addend: 0x0, symName: __ZNSt3__142__uninitialized_allocator_move_if_noexceptB7v160006INS_9allocatorIP4nodeEENS_16reverse_iteratorIPS3_EES7_S3_vEET1_RT_T0_SB_S8_, symObjAddr: 0x2450, symBinAddr: 0x100004B38, symSize: 0xE8 }
  - { offsetInCU: 0x77EE, offset: 0x77EE, size: 0x8, addend: 0x0, symName: __ZNSt3__14swapB7v160006IPP4nodeEEvRT_S5_, symObjAddr: 0x2584, symBinAddr: 0x100004C6C, symSize: 0x3C }
  - { offsetInCU: 0x783F, offset: 0x783F, size: 0x8, addend: 0x0, symName: __ZNSt3__125__debug_db_invalidate_allB7v160006INS_6vectorIP4nodeNS_9allocatorIS3_EEEEEEvPT_, symObjAddr: 0x266C, symBinAddr: 0x100004D54, symSize: 0x10 }
  - { offsetInCU: 0x7870, offset: 0x7870, size: 0x8, addend: 0x0, symName: __ZNSt3__1neB7v160006IPP4nodeS3_EEbRKNS_16reverse_iteratorIT_EERKNS4_IT0_EE, symObjAddr: 0x26C4, symBinAddr: 0x100004DAC, symSize: 0x48 }
  - { offsetInCU: 0x78E1, offset: 0x78E1, size: 0x8, addend: 0x0, symName: __ZNSt3__114__construct_atB7v160006IP4nodeJS2_EPS2_EEPT_S5_DpOT0_, symObjAddr: 0x270C, symBinAddr: 0x100004DF4, symSize: 0x2C }
  - { offsetInCU: 0x7951, offset: 0x7951, size: 0x8, addend: 0x0, symName: __ZNSt3__112__to_addressB7v160006INS_16reverse_iteratorIPP4nodeEEvEENS_5decayIDTclsr19__to_address_helperIT_EE6__callclsr3stdE7declvalIRKS7_EEEEE4typeES9_, symObjAddr: 0x2738, symBinAddr: 0x100004E20, symSize: 0x24 }
  - { offsetInCU: 0x7987, offset: 0x7987, size: 0x8, addend: 0x0, symName: __ZNSt3__14moveB7v160006INS_16reverse_iteratorIPP4nodeEES5_EET0_T_S7_S6_, symObjAddr: 0x27A4, symBinAddr: 0x100004E8C, symSize: 0x78 }
  - { offsetInCU: 0x7A0A, offset: 0x7A0A, size: 0x8, addend: 0x0, symName: __ZNSt3__16__moveB7v160006INS_17_ClassicAlgPolicyENS_16reverse_iteratorIPP4nodeEES6_S6_EENS_4pairIT0_T2_EES8_T1_S9_, symObjAddr: 0x288C, symBinAddr: 0x100004F74, symSize: 0x64 }
  - { offsetInCU: 0x7A76, offset: 0x7A76, size: 0x8, addend: 0x0, symName: __ZNSt3__123__dispatch_copy_or_moveB7v160006INS_17_ClassicAlgPolicyENS_11__move_loopIS1_EENS_14__move_trivialENS_16reverse_iteratorIPP4nodeEES9_S9_EENS_4pairIT2_T4_EESB_T3_SC_, symObjAddr: 0x28F0, symBinAddr: 0x100004FD8, symSize: 0x7C }
  - { offsetInCU: 0x7AF4, offset: 0x7AF4, size: 0x8, addend: 0x0, symName: __ZNSt3__121__unwrap_and_dispatchB7v160006INS_10__overloadINS_11__move_loopINS_17_ClassicAlgPolicyEEENS_14__move_trivialEEENS_16reverse_iteratorIPP4nodeEESB_SB_Li0EEENS_4pairIT0_T2_EESD_T1_SE_, symObjAddr: 0x296C, symBinAddr: 0x100005054, symSize: 0x12C }
  - { offsetInCU: 0x7B84, offset: 0x7B84, size: 0x8, addend: 0x0, symName: __ZNSt3__114__unwrap_rangeB7v160006INS_16reverse_iteratorIPP4nodeEES5_EENS_4pairIT0_S7_EET_S9_, symObjAddr: 0x2A98, symBinAddr: 0x100005180, symSize: 0x84 }
  - { offsetInCU: 0x7CD8, offset: 0x7CD8, size: 0x8, addend: 0x0, symName: __ZNSt3__113__unwrap_iterB7v160006INS_16reverse_iteratorIPP4nodeEENS_18__unwrap_iter_implIS5_Lb0EEELi0EEEDTclsrT0_8__unwrapclsr3stdE7declvalIT_EEEES9_, symObjAddr: 0x2BBC, symBinAddr: 0x1000052A4, symSize: 0x44 }
  - { offsetInCU: 0x7D1C, offset: 0x7D1C, size: 0x8, addend: 0x0, symName: __ZNSt3__19make_pairB7v160006INS_16reverse_iteratorIPP4nodeEES5_EENS_4pairINS_18__unwrap_ref_decayIT_E4typeENS7_IT0_E4typeEEEOS8_OSB_, symObjAddr: 0x2C00, symBinAddr: 0x1000052E8, symSize: 0x38 }
  - { offsetInCU: 0x7D6B, offset: 0x7D6B, size: 0x8, addend: 0x0, symName: __ZNSt3__114__rewrap_rangeB7v160006INS_16reverse_iteratorIPP4nodeEES5_EET_S6_T0_, symObjAddr: 0x2C38, symBinAddr: 0x100005320, symSize: 0x5C }
  - { offsetInCU: 0x7DB7, offset: 0x7DB7, size: 0x8, addend: 0x0, symName: __ZNSt3__113__rewrap_iterB7v160006INS_16reverse_iteratorIPP4nodeEES5_NS_18__unwrap_iter_implIS5_Lb0EEEEET_S8_T0_, symObjAddr: 0x2C94, symBinAddr: 0x10000537C, symSize: 0x88 }
  - { offsetInCU: 0x7EBE, offset: 0x7EBE, size: 0x8, addend: 0x0, symName: __ZNSt3__119__libcpp_deallocateB7v160006EPvmm, symObjAddr: 0x30BC, symBinAddr: 0x1000057A4, symSize: 0x30 }
  - { offsetInCU: 0x7F06, offset: 0x7F06, size: 0x8, addend: 0x0, symName: __ZNSt3__127__do_deallocate_handle_sizeB7v160006IJEEEvPvmDpT_, symObjAddr: 0x30EC, symBinAddr: 0x1000057D4, symSize: 0x28 }
  - { offsetInCU: 0x7F44, offset: 0x7F44, size: 0x8, addend: 0x0, symName: __ZNSt3__124__libcpp_operator_deleteB7v160006IJPvEEEvDpT_, symObjAddr: 0x3114, symBinAddr: 0x1000057FC, symSize: 0x24 }
  - { offsetInCU: 0x7F79, offset: 0x7F79, size: 0x8, addend: 0x0, symName: __ZNSt3__116__pad_and_outputB7v160006IcNS_11char_traitsIcEEEENS_19ostreambuf_iteratorIT_T0_EES6_PKS4_S8_S8_RNS_8ios_baseES4_, symObjAddr: 0x33DC, symBinAddr: 0x100005AC4, symSize: 0x248 }
  - { offsetInCU: 0x8048, offset: 0x8048, size: 0x8, addend: 0x0, symName: __ZNSt3__112__to_addressB7v160006IKcEEPT_S3_, symObjAddr: 0x385C, symBinAddr: 0x100005F44, symSize: 0x14 }
  - { offsetInCU: 0x80B0, offset: 0x80B0, size: 0x8, addend: 0x0, symName: __ZNSt3__19use_facetB7v160006INS_5ctypeIcEEEERKT_RKNS_6localeE, symObjAddr: 0x3B34, symBinAddr: 0x10000621C, symSize: 0x2C }
  - { offsetInCU: 0x857F, offset: 0x857F, size: 0x8, addend: 0x0, symName: __ZNSt3__118__constexpr_strlenB7v160006EPKc, symObjAddr: 0x3BCC, symBinAddr: 0x1000062B4, symSize: 0x24 }
  - { offsetInCU: 0x85AB, offset: 0x85AB, size: 0x8, addend: 0x0, symName: __ZNSt3__119__debug_db_insert_cB7v160006INS_6vectorIP4nodeNS_9allocatorIS3_EEEEEEvPT_, symObjAddr: 0x3D28, symBinAddr: 0x100006410, symSize: 0x10 }
  - { offsetInCU: 0x85DC, offset: 0x85DC, size: 0x8, addend: 0x0, symName: __ZNSt3__118__debug_db_erase_cB7v160006INS_6vectorIP4nodeNS_9allocatorIS3_EEEEEEvPT_, symObjAddr: 0x3F10, symBinAddr: 0x1000065F8, symSize: 0x10 }
  - { offsetInCU: 0x860D, offset: 0x860D, size: 0x8, addend: 0x0, symName: __ZNSt3__122__make_exception_guardB7v160006INS_6vectorI4nodeNS_9allocatorIS2_EEE16__destroy_vectorEEENS_28__exception_guard_exceptionsIT_EES8_, symObjAddr: 0x416C, symBinAddr: 0x100006854, symSize: 0x40 }
  - { offsetInCU: 0x8642, offset: 0x8642, size: 0x8, addend: 0x0, symName: __ZNSt3__119__debug_db_insert_cB7v160006INS_6vectorI4nodeNS_9allocatorIS2_EEEEEEvPT_, symObjAddr: 0x41E0, symBinAddr: 0x1000068C8, symSize: 0x10 }
  - { offsetInCU: 0x8673, offset: 0x8673, size: 0x8, addend: 0x0, symName: __ZNSt3__119__allocate_at_leastB7v160006INS_9allocatorI4nodeEEEENS_19__allocation_resultINS_16allocator_traitsIT_E7pointerEEERS6_m, symObjAddr: 0x458C, symBinAddr: 0x100006C74, symSize: 0x40 }
  - { offsetInCU: 0x86B6, offset: 0x86B6, size: 0x8, addend: 0x0, symName: __ZNSt3__112__to_addressB7v160006I4nodeEEPT_S3_, symObjAddr: 0x490C, symBinAddr: 0x100006FF4, symSize: 0x14 }
  - { offsetInCU: 0x86EB, offset: 0x86EB, size: 0x8, addend: 0x0, symName: __ZNSt3__118__debug_db_erase_cB7v160006INS_6vectorI4nodeNS_9allocatorIS2_EEEEEEvPT_, symObjAddr: 0x4C74, symBinAddr: 0x10000735C, symSize: 0x10 }
  - { offsetInCU: 0x8925, offset: 0x8925, size: 0x8, addend: 0x0, symName: __ZSt28__throw_bad_array_new_lengthB7v160006v, symObjAddr: 0x1614, symBinAddr: 0x100003CFC, symSize: 0x34 }
  - { offsetInCU: 0x8E9E, offset: 0x8E9E, size: 0x8, addend: 0x0, symName: __ZNSt3__16vectorIP4nodeNS_9allocatorIS2_EEE26__swap_out_circular_bufferERNS_14__split_bufferIS2_RS4_EE, symObjAddr: 0x1B4C, symBinAddr: 0x100004234, symSize: 0x118 }
  - { offsetInCU: 0xB2CD, offset: 0xB2CD, size: 0x8, addend: 0x0, symName: __Z4testRNSt3__16vectorIP4nodeNS_9allocatorIS2_EEEERKNS_12basic_stringIcNS_11char_traitsIcEENS3_IcEEEE, symObjAddr: 0x0, symBinAddr: 0x1000026E8, symSize: 0x220 }
  - { offsetInCU: 0xB35B, offset: 0xB35B, size: 0x8, addend: 0x0, symName: __ZNSt3__113basic_ostreamIcNS_11char_traitsIcEEElsB7v160006EPFRS3_S4_E, symObjAddr: 0x2B4, symBinAddr: 0x10000299C, symSize: 0x2C }
  - { offsetInCU: 0xB38E, offset: 0xB38E, size: 0x8, addend: 0x0, symName: __ZNKSt3__112basic_stringIcNS_11char_traitsIcEENS_9allocatorIcEEE6lengthB7v160006Ev, symObjAddr: 0x338, symBinAddr: 0x100002A20, symSize: 0x24 }
  - { offsetInCU: 0xB3B3, offset: 0xB3B3, size: 0x8, addend: 0x0, symName: __ZNKSt3__112basic_stringIcNS_11char_traitsIcEENS_9allocatorIcEEEixB7v160006Em, symObjAddr: 0x390, symBinAddr: 0x100002A78, symSize: 0x30 }
  - { offsetInCU: 0xB3E7, offset: 0xB3E7, size: 0x8, addend: 0x0, symName: __ZNSt3__16vectorIP4nodeNS_9allocatorIS2_EEEixB7v160006Em, symObjAddr: 0x3C0, symBinAddr: 0x100002AA8, symSize: 0x24 }
  - { offsetInCU: 0xB41D, offset: 0xB41D, size: 0x8, addend: 0x0, symName: __ZN4node10transitionEv, symObjAddr: 0x3E4, symBinAddr: 0x100002ACC, symSize: 0x1C }
  - { offsetInCU: 0xB442, offset: 0xB442, size: 0x8, addend: 0x0, symName: __ZN4node10activationEv, symObjAddr: 0x400, symBinAddr: 0x100002AE8, symSize: 0x24 }
  - { offsetInCU: 0xB467, offset: 0xB467, size: 0x8, addend: 0x0, symName: __ZNKSt3__16vectorIP4nodeNS_9allocatorIS2_EEE4sizeB7v160006Ev, symObjAddr: 0x424, symBinAddr: 0x100002B0C, symSize: 0x28 }
  - { offsetInCU: 0xB48C, offset: 0xB48C, size: 0x8, addend: 0x0, symName: __ZN4node5inputERKc, symObjAddr: 0x44C, symBinAddr: 0x100002B34, symSize: 0x334 }
  - { offsetInCU: 0xB4DB, offset: 0xB4DB, size: 0x8, addend: 0x0, symName: __Z9makeRegexRKNSt3__112basic_stringIcNS_11char_traitsIcEENS_9allocatorIcEEEE, symObjAddr: 0x780, symBinAddr: 0x100002E68, symSize: 0x5D8 }
  - { offsetInCU: 0xB611, offset: 0xB611, size: 0x8, addend: 0x0, symName: __ZNSt3__16vectorIP4nodeNS_9allocatorIS2_EEEC1B7v160006Ev, symObjAddr: 0xD58, symBinAddr: 0x100003440, symSize: 0x2C }
  - { offsetInCU: 0xB63A, offset: 0xB63A, size: 0x8, addend: 0x0, symName: __ZN4nodeC1Ev, symObjAddr: 0xD84, symBinAddr: 0x10000346C, symSize: 0x2C }
  - { offsetInCU: 0xB665, offset: 0xB665, size: 0x8, addend: 0x0, symName: __ZN4node4initERKNSt3__112basic_stringIcNS0_11char_traitsIcEENS0_9allocatorIcEEEEbc, symObjAddr: 0xDBC, symBinAddr: 0x1000034A4, symSize: 0x60 }
  - { offsetInCU: 0xB6B4, offset: 0xB6B4, size: 0x8, addend: 0x0, symName: __ZN4node7addNodeEPS_, symObjAddr: 0xE1C, symBinAddr: 0x100003504, symSize: 0x34 }
  - { offsetInCU: 0xB6EC, offset: 0xB6EC, size: 0x8, addend: 0x0, symName: __ZNSt3__112basic_stringIcNS_11char_traitsIcEENS_9allocatorIcEEEC1B7v160006IDnEEPKc, symObjAddr: 0xE50, symBinAddr: 0x100003538, symSize: 0x34 }
  - { offsetInCU: 0xB728, offset: 0xB728, size: 0x8, addend: 0x0, symName: __ZNSt3__16vectorIP4nodeNS_9allocatorIS2_EEE9push_backB7v160006ERKS2_, symObjAddr: 0xE84, symBinAddr: 0x10000356C, symSize: 0x6C }
  - { offsetInCU: 0xB75E, offset: 0xB75E, size: 0x8, addend: 0x0, symName: __ZNSt3__16vectorIP4nodeNS_9allocatorIS2_EEED1B7v160006Ev, symObjAddr: 0xEF0, symBinAddr: 0x1000035D8, symSize: 0x2C }
  - { offsetInCU: 0xB787, offset: 0xB787, size: 0x8, addend: 0x0, symName: _main, symObjAddr: 0xF1C, symBinAddr: 0x100003604, symSize: 0x120 }
  - { offsetInCU: 0xB7CC, offset: 0xB7CC, size: 0x8, addend: 0x0, symName: __ZNSt3__16vectorI4nodeNS_9allocatorIS1_EEEC1Em, symObjAddr: 0x103C, symBinAddr: 0x100003724, symSize: 0x34 }
  - { offsetInCU: 0xB806, offset: 0xB806, size: 0x8, addend: 0x0, symName: __ZNSt3__16vectorI4nodeNS_9allocatorIS1_EEED1B7v160006Ev, symObjAddr: 0x1070, symBinAddr: 0x100003758, symSize: 0x2C }
  - { offsetInCU: 0xB82F, offset: 0xB82F, size: 0x8, addend: 0x0, symName: __ZN4nodeC2Ev, symObjAddr: 0x109C, symBinAddr: 0x100003784, symSize: 0x68 }
  - { offsetInCU: 0xB85A, offset: 0xB85A, size: 0x8, addend: 0x0, symName: __ZNSt3__112basic_stringIcNS_11char_traitsIcEENS_9allocatorIcEEEC1B7v160006Ev, symObjAddr: 0x1104, symBinAddr: 0x1000037EC, symSize: 0x2C }
  - { offsetInCU: 0xB883, offset: 0xB883, size: 0x8, addend: 0x0, symName: __ZNSt3__112basic_stringIcNS_11char_traitsIcEENS_9allocatorIcEEEC2B7v160006Ev, symObjAddr: 0x1130, symBinAddr: 0x100003818, symSize: 0x44 }
  - { offsetInCU: 0xB8B1, offset: 0xB8B1, size: 0x8, addend: 0x0, symName: __ZNSt3__117__compressed_pairINS_12basic_stringIcNS_11char_traitsIcEENS_9allocatorIcEEE5__repES5_EC1B7v160006INS_18__default_init_tagESA_EEOT_OT0_, symObjAddr: 0x1174, symBinAddr: 0x10000385C, symSize: 0x3C }
  - { offsetInCU: 0xB908, offset: 0xB908, size: 0x8, addend: 0x0, symName: __ZNSt3__112basic_stringIcNS_11char_traitsIcEENS_9allocatorIcEEE14__default_initB7v160006Ev, symObjAddr: 0x11C0, symBinAddr: 0x1000038A8, symSize: 0xB0 }
  - { offsetInCU: 0xB95A, offset: 0xB95A, size: 0x8, addend: 0x0, symName: __ZNSt3__117__compressed_pairINS_12basic_stringIcNS_11char_traitsIcEENS_9allocatorIcEEE5__repES5_EC2B7v160006INS_18__default_init_tagESA_EEOT_OT0_, symObjAddr: 0x1270, symBinAddr: 0x100003958, symSize: 0x3C }
  - { offsetInCU: 0xB9B1, offset: 0xB9B1, size: 0x8, addend: 0x0, symName: __ZNSt3__122__compressed_pair_elemINS_12basic_stringIcNS_11char_traitsIcEENS_9allocatorIcEEE5__repELi0ELb0EEC2B7v160006ENS_18__default_init_tagE, symObjAddr: 0x12AC, symBinAddr: 0x100003994, symSize: 0x14 }
  - { offsetInCU: 0xB9E5, offset: 0xB9E5, size: 0x8, addend: 0x0, symName: __ZNSt3__122__compressed_pair_elemINS_9allocatorIcEELi1ELb1EEC2B7v160006ENS_18__default_init_tagE, symObjAddr: 0x12C0, symBinAddr: 0x1000039A8, symSize: 0x2C }
  - { offsetInCU: 0xBA19, offset: 0xBA19, size: 0x8, addend: 0x0, symName: __ZNSt3__19allocatorIcEC2B7v160006Ev, symObjAddr: 0x12EC, symBinAddr: 0x1000039D4, symSize: 0x2C }
  - { offsetInCU: 0xBA42, offset: 0xBA42, size: 0x8, addend: 0x0, symName: __ZNSt3__116__non_trivial_ifILb1ENS_9allocatorIcEEEC2B7v160006Ev, symObjAddr: 0x1318, symBinAddr: 0x100003A00, symSize: 0x14 }
  - { offsetInCU: 0xBA6B, offset: 0xBA6B, size: 0x8, addend: 0x0, symName: __ZNSt3__117__compressed_pairINS_12basic_stringIcNS_11char_traitsIcEENS_9allocatorIcEEE5__repES5_E5firstB7v160006Ev, symObjAddr: 0x132C, symBinAddr: 0x100003A14, symSize: 0x24 }
  - { offsetInCU: 0xBA90, offset: 0xBA90, size: 0x8, addend: 0x0, symName: __ZNSt3__112basic_stringIcNS_11char_traitsIcEENS_9allocatorIcEEE11__recommendB7v160006Em, symObjAddr: 0x135C, symBinAddr: 0x100003A44, symSize: 0x9C }
  - { offsetInCU: 0xBAC3, offset: 0xBAC3, size: 0x8, addend: 0x0, symName: __ZNSt3__116allocator_traitsINS_9allocatorIcEEE8allocateB7v160006ERS2_m, symObjAddr: 0x13F8, symBinAddr: 0x100003AE0, symSize: 0x2C }
  - { offsetInCU: 0xBAF6, offset: 0xBAF6, size: 0x8, addend: 0x0, symName: __ZNSt3__112basic_stringIcNS_11char_traitsIcEENS_9allocatorIcEEE7__allocB7v160006Ev, symObjAddr: 0x1424, symBinAddr: 0x100003B0C, symSize: 0x24 }
  - { offsetInCU: 0xBB1B, offset: 0xBB1B, size: 0x8, addend: 0x0, symName: __ZNSt3__112basic_stringIcNS_11char_traitsIcEENS_9allocatorIcEEE16__begin_lifetimeB7v160006EPcm, symObjAddr: 0x1448, symBinAddr: 0x100003B30, symSize: 0x14 }
  - { offsetInCU: 0xBB4E, offset: 0xBB4E, size: 0x8, addend: 0x0, symName: __ZNSt3__112basic_stringIcNS_11char_traitsIcEENS_9allocatorIcEEE18__set_long_pointerB7v160006EPc, symObjAddr: 0x145C, symBinAddr: 0x100003B44, symSize: 0x38 }
  - { offsetInCU: 0xBB82, offset: 0xBB82, size: 0x8, addend: 0x0, symName: __ZNSt3__112basic_stringIcNS_11char_traitsIcEENS_9allocatorIcEEE14__set_long_capB7v160006Em, symObjAddr: 0x1494, symBinAddr: 0x100003B7C, symSize: 0x70 }
  - { offsetInCU: 0xBBB6, offset: 0xBBB6, size: 0x8, addend: 0x0, symName: __ZNSt3__112basic_stringIcNS_11char_traitsIcEENS_9allocatorIcEEE15__set_long_sizeB7v160006Em, symObjAddr: 0x1504, symBinAddr: 0x100003BEC, symSize: 0x38 }
  - { offsetInCU: 0xBBEA, offset: 0xBBEA, size: 0x8, addend: 0x0, symName: __ZNSt3__122__compressed_pair_elemINS_12basic_stringIcNS_11char_traitsIcEENS_9allocatorIcEEE5__repELi0ELb0EE5__getB7v160006Ev, symObjAddr: 0x153C, symBinAddr: 0x100003C24, symSize: 0x14 }
  - { offsetInCU: 0xBC0F, offset: 0xBC0F, size: 0x8, addend: 0x0, symName: __ZNSt3__112basic_stringIcNS_11char_traitsIcEENS_9allocatorIcEEE10__align_itB7v160006ILm16EEEmm, symObjAddr: 0x1550, symBinAddr: 0x100003C38, symSize: 0x1C }
  - { offsetInCU: 0xBC3D, offset: 0xBC3D, size: 0x8, addend: 0x0, symName: __ZNSt3__19allocatorIcE8allocateB7v160006Em, symObjAddr: 0x156C, symBinAddr: 0x100003C54, symSize: 0x84 }
  - { offsetInCU: 0xBC7A, offset: 0xBC7A, size: 0x8, addend: 0x0, symName: __ZNSt3__116allocator_traitsINS_9allocatorIcEEE8max_sizeB7v160006IS2_vEEmRKS2_, symObjAddr: 0x15F0, symBinAddr: 0x100003CD8, symSize: 0x24 }
  - { offsetInCU: 0xBCA8, offset: 0xBCA8, size: 0x8, addend: 0x0, symName: __ZNKSt3__19allocatorIcE8max_sizeB7v160006Ev, symObjAddr: 0x1670, symBinAddr: 0x100003D58, symSize: 0x14 }
  - { offsetInCU: 0xBCCD, offset: 0xBCCD, size: 0x8, addend: 0x0, symName: __ZNSt3__117__compressed_pairINS_12basic_stringIcNS_11char_traitsIcEENS_9allocatorIcEEE5__repES5_E6secondB7v160006Ev, symObjAddr: 0x16A8, symBinAddr: 0x100003D90, symSize: 0x24 }
  - { offsetInCU: 0xBCF2, offset: 0xBCF2, size: 0x8, addend: 0x0, symName: __ZNSt3__122__compressed_pair_elemINS_9allocatorIcEELi1ELb1EE5__getB7v160006Ev, symObjAddr: 0x16CC, symBinAddr: 0x100003DB4, symSize: 0x14 }
  - { offsetInCU: 0xBD17, offset: 0xBD17, size: 0x8, addend: 0x0, symName: __ZNSt3__16vectorIP4nodeNS_9allocatorIS2_EEE9__end_capB7v160006Ev, symObjAddr: 0x16E0, symBinAddr: 0x100003DC8, symSize: 0x28 }
  - { offsetInCU: 0xBD3C, offset: 0xBD3C, size: 0x8, addend: 0x0, symName: __ZNSt3__16vectorIP4nodeNS_9allocatorIS2_EEE22__construct_one_at_endB7v160006IJRKS2_EEEvDpOT_, symObjAddr: 0x1708, symBinAddr: 0x100003DF0, symSize: 0x98 }
  - { offsetInCU: 0xBD89, offset: 0xBD89, size: 0x8, addend: 0x0, symName: __ZNSt3__16vectorIP4nodeNS_9allocatorIS2_EEE21__push_back_slow_pathIRKS2_EEvOT_, symObjAddr: 0x17A0, symBinAddr: 0x100003E88, symSize: 0xE0 }
  - { offsetInCU: 0xBDE6, offset: 0xBDE6, size: 0x8, addend: 0x0, symName: __ZNSt3__117__compressed_pairIPP4nodeNS_9allocatorIS2_EEE5firstB7v160006Ev, symObjAddr: 0x1880, symBinAddr: 0x100003F68, symSize: 0x24 }
  - { offsetInCU: 0xBE0B, offset: 0xBE0B, size: 0x8, addend: 0x0, symName: __ZNSt3__122__compressed_pair_elemIPP4nodeLi0ELb0EE5__getB7v160006Ev, symObjAddr: 0x18A4, symBinAddr: 0x100003F8C, symSize: 0x14 }
  - { offsetInCU: 0xBE49, offset: 0xBE49, size: 0x8, addend: 0x0, symName: __ZNSt3__16vectorIP4nodeNS_9allocatorIS2_EEE21_ConstructTransactionC1B7v160006ERS5_m, symObjAddr: 0x18B8, symBinAddr: 0x100003FA0, symSize: 0x3C }
  - { offsetInCU: 0xBE90, offset: 0xBE90, size: 0x8, addend: 0x0, symName: __ZNSt3__116allocator_traitsINS_9allocatorIP4nodeEEE9constructB7v160006IS3_JRKS3_EvEEvRS4_PT_DpOT0_, symObjAddr: 0x18F4, symBinAddr: 0x100003FDC, symSize: 0x34 }
  - { offsetInCU: 0xBEE7, offset: 0xBEE7, size: 0x8, addend: 0x0, symName: __ZNSt3__16vectorIP4nodeNS_9allocatorIS2_EEE7__allocB7v160006Ev, symObjAddr: 0x1928, symBinAddr: 0x100004010, symSize: 0x28 }
  - { offsetInCU: 0xBF0C, offset: 0xBF0C, size: 0x8, addend: 0x0, symName: __ZNSt3__16vectorIP4nodeNS_9allocatorIS2_EEE21_ConstructTransactionD1B7v160006Ev, symObjAddr: 0x1964, symBinAddr: 0x10000404C, symSize: 0x2C }
  - { offsetInCU: 0xBF35, offset: 0xBF35, size: 0x8, addend: 0x0, symName: __ZNSt3__16vectorIP4nodeNS_9allocatorIS2_EEE21_ConstructTransactionC2B7v160006ERS5_m, symObjAddr: 0x1990, symBinAddr: 0x100004078, symSize: 0x44 }
  - { offsetInCU: 0xBF7C, offset: 0xBF7C, size: 0x8, addend: 0x0, symName: __ZNSt3__19allocatorIP4nodeE9constructB7v160006IS2_JRKS2_EEEvPT_DpOT0_, symObjAddr: 0x19D4, symBinAddr: 0x1000040BC, symSize: 0x28 }
  - { offsetInCU: 0xBFD1, offset: 0xBFD1, size: 0x8, addend: 0x0, symName: __ZNSt3__117__compressed_pairIPP4nodeNS_9allocatorIS2_EEE6secondB7v160006Ev, symObjAddr: 0x19FC, symBinAddr: 0x1000040E4, symSize: 0x24 }
  - { offsetInCU: 0xBFF6, offset: 0xBFF6, size: 0x8, addend: 0x0, symName: __ZNSt3__122__compressed_pair_elemINS_9allocatorIP4nodeEELi1ELb1EE5__getB7v160006Ev, symObjAddr: 0x1A20, symBinAddr: 0x100004108, symSize: 0x14 }
  - { offsetInCU: 0xC01B, offset: 0xC01B, size: 0x8, addend: 0x0, symName: __ZNSt3__16vectorIP4nodeNS_9allocatorIS2_EEE21_ConstructTransactionD2B7v160006Ev, symObjAddr: 0x1A34, symBinAddr: 0x10000411C, symSize: 0x20 }
  - { offsetInCU: 0xC043, offset: 0xC043, size: 0x8, addend: 0x0, symName: __ZNKSt3__16vectorIP4nodeNS_9allocatorIS2_EEE11__recommendB7v160006Em, symObjAddr: 0x1A54, symBinAddr: 0x10000413C, symSize: 0xB4 }
  - { offsetInCU: 0xC097, offset: 0xC097, size: 0x8, addend: 0x0, symName: __ZNSt3__114__split_bufferIP4nodeRNS_9allocatorIS2_EEEC1EmmS5_, symObjAddr: 0x1B08, symBinAddr: 0x1000041F0, symSize: 0x44 }
  - { offsetInCU: 0xC0EC, offset: 0xC0EC, size: 0x8, addend: 0x0, symName: __ZNSt3__114__split_bufferIP4nodeRNS_9allocatorIS2_EEED1Ev, symObjAddr: 0x1C64, symBinAddr: 0x10000434C, symSize: 0x2C }
  - { offsetInCU: 0xC116, offset: 0xC116, size: 0x8, addend: 0x0, symName: __ZNKSt3__16vectorIP4nodeNS_9allocatorIS2_EEE8max_sizeEv, symObjAddr: 0x1C90, symBinAddr: 0x100004378, symSize: 0x74 }
  - { offsetInCU: 0xC13D, offset: 0xC13D, size: 0x8, addend: 0x0, symName: __ZNKSt3__16vectorIP4nodeNS_9allocatorIS2_EEE20__throw_length_errorB7v160006Ev, symObjAddr: 0x1D04, symBinAddr: 0x1000043EC, symSize: 0x1C }
  - { offsetInCU: 0xC162, offset: 0xC162, size: 0x8, addend: 0x0, symName: __ZNKSt3__16vectorIP4nodeNS_9allocatorIS2_EEE8capacityB7v160006Ev, symObjAddr: 0x1D20, symBinAddr: 0x100004408, symSize: 0x40 }
  - { offsetInCU: 0xC191, offset: 0xC191, size: 0x8, addend: 0x0, symName: __ZNSt3__116allocator_traitsINS_9allocatorIP4nodeEEE8max_sizeB7v160006IS4_vEEmRKS4_, symObjAddr: 0x1DB8, symBinAddr: 0x1000044A0, symSize: 0x24 }
  - { offsetInCU: 0xC1BF, offset: 0xC1BF, size: 0x8, addend: 0x0, symName: __ZNKSt3__16vectorIP4nodeNS_9allocatorIS2_EEE7__allocB7v160006Ev, symObjAddr: 0x1DDC, symBinAddr: 0x1000044C4, symSize: 0x28 }
  - { offsetInCU: 0xC1E4, offset: 0xC1E4, size: 0x8, addend: 0x0, symName: __ZNSt3__114numeric_limitsIlE3maxB7v160006Ev, symObjAddr: 0x1E04, symBinAddr: 0x1000044EC, symSize: 0x14 }
  - { offsetInCU: 0xC20C, offset: 0xC20C, size: 0x8, addend: 0x0, symName: __ZNKSt3__16__lessImmEclB7v160006ERKmS3_, symObjAddr: 0x1E6C, symBinAddr: 0x100004554, symSize: 0x34 }
  - { offsetInCU: 0xC24D, offset: 0xC24D, size: 0x8, addend: 0x0, symName: __ZNKSt3__19allocatorIP4nodeE8max_sizeB7v160006Ev, symObjAddr: 0x1EA0, symBinAddr: 0x100004588, symSize: 0x14 }
  - { offsetInCU: 0xC272, offset: 0xC272, size: 0x8, addend: 0x0, symName: __ZNKSt3__117__compressed_pairIPP4nodeNS_9allocatorIS2_EEE6secondB7v160006Ev, symObjAddr: 0x1EB4, symBinAddr: 0x10000459C, symSize: 0x24 }
  - { offsetInCU: 0xC297, offset: 0xC297, size: 0x8, addend: 0x0, symName: __ZNKSt3__122__compressed_pair_elemINS_9allocatorIP4nodeEELi1ELb1EE5__getB7v160006Ev, symObjAddr: 0x1ED8, symBinAddr: 0x1000045C0, symSize: 0x14 }
  - { offsetInCU: 0xC2BC, offset: 0xC2BC, size: 0x8, addend: 0x0, symName: __ZNSt3__123__libcpp_numeric_limitsIlLb1EE3maxB7v160006Ev, symObjAddr: 0x1EEC, symBinAddr: 0x1000045D4, symSize: 0x8 }
  - { offsetInCU: 0xC2D0, offset: 0xC2D0, size: 0x8, addend: 0x0, symName: __ZNSt12length_errorC1B7v160006EPKc, symObjAddr: 0x1F58, symBinAddr: 0x100004640, symSize: 0x34 }
  - { offsetInCU: 0xC307, offset: 0xC307, size: 0x8, addend: 0x0, symName: __ZNSt12length_errorC2B7v160006EPKc, symObjAddr: 0x1F8C, symBinAddr: 0x100004674, symSize: 0x4C }
  - { offsetInCU: 0xC33E, offset: 0xC33E, size: 0x8, addend: 0x0, symName: __ZNKSt3__16vectorIP4nodeNS_9allocatorIS2_EEE9__end_capB7v160006Ev, symObjAddr: 0x1FD8, symBinAddr: 0x1000046C0, symSize: 0x28 }
  - { offsetInCU: 0xC363, offset: 0xC363, size: 0x8, addend: 0x0, symName: __ZNKSt3__117__compressed_pairIPP4nodeNS_9allocatorIS2_EEE5firstB7v160006Ev, symObjAddr: 0x2000, symBinAddr: 0x1000046E8, symSize: 0x24 }
  - { offsetInCU: 0xC388, offset: 0xC388, size: 0x8, addend: 0x0, symName: __ZNKSt3__122__compressed_pair_elemIPP4nodeLi0ELb0EE5__getB7v160006Ev, symObjAddr: 0x2024, symBinAddr: 0x10000470C, symSize: 0x14 }
  - { offsetInCU: 0xC3AD, offset: 0xC3AD, size: 0x8, addend: 0x0, symName: __ZNSt3__114__split_bufferIP4nodeRNS_9allocatorIS2_EEEC2EmmS5_, symObjAddr: 0x208C, symBinAddr: 0x100004774, symSize: 0xD4 }
  - { offsetInCU: 0xC425, offset: 0xC425, size: 0x8, addend: 0x0, symName: __ZNSt3__117__compressed_pairIPP4nodeRNS_9allocatorIS2_EEEC1B7v160006IDnS6_EEOT_OT0_, symObjAddr: 0x2160, symBinAddr: 0x100004848, symSize: 0x3C }
  - { offsetInCU: 0xC47C, offset: 0xC47C, size: 0x8, addend: 0x0, symName: __ZNSt3__114__split_bufferIP4nodeRNS_9allocatorIS2_EEE7__allocB7v160006Ev, symObjAddr: 0x21DC, symBinAddr: 0x1000048C4, symSize: 0x28 }
  - { offsetInCU: 0xC4A1, offset: 0xC4A1, size: 0x8, addend: 0x0, symName: __ZNSt3__114__split_bufferIP4nodeRNS_9allocatorIS2_EEE9__end_capB7v160006Ev, symObjAddr: 0x2204, symBinAddr: 0x1000048EC, symSize: 0x28 }
  - { offsetInCU: 0xC4C6, offset: 0xC4C6, size: 0x8, addend: 0x0, symName: __ZNSt3__117__compressed_pairIPP4nodeRNS_9allocatorIS2_EEEC2B7v160006IDnS6_EEOT_OT0_, symObjAddr: 0x222C, symBinAddr: 0x100004914, symSize: 0x48 }
  - { offsetInCU: 0xC51D, offset: 0xC51D, size: 0x8, addend: 0x0, symName: __ZNSt3__122__compressed_pair_elemIPP4nodeLi0ELb0EEC2B7v160006IDnvEEOT_, symObjAddr: 0x2274, symBinAddr: 0x10000495C, symSize: 0x1C }
  - { offsetInCU: 0xC55E, offset: 0xC55E, size: 0x8, addend: 0x0, symName: __ZNSt3__122__compressed_pair_elemIRNS_9allocatorIP4nodeEELi1ELb0EEC2B7v160006IS5_vEEOT_, symObjAddr: 0x2290, symBinAddr: 0x100004978, symSize: 0x20 }
  - { offsetInCU: 0xC59F, offset: 0xC59F, size: 0x8, addend: 0x0, symName: __ZNSt3__19allocatorIP4nodeE8allocateB7v160006Em, symObjAddr: 0x22B0, symBinAddr: 0x100004998, symSize: 0x84 }
  - { offsetInCU: 0xC5D2, offset: 0xC5D2, size: 0x8, addend: 0x0, symName: __ZNSt3__117__compressed_pairIPP4nodeRNS_9allocatorIS2_EEE6secondB7v160006Ev, symObjAddr: 0x2334, symBinAddr: 0x100004A1C, symSize: 0x28 }
  - { offsetInCU: 0xC5F7, offset: 0xC5F7, size: 0x8, addend: 0x0, symName: __ZNSt3__122__compressed_pair_elemIRNS_9allocatorIP4nodeEELi1ELb0EE5__getB7v160006Ev, symObjAddr: 0x235C, symBinAddr: 0x100004A44, symSize: 0x18 }
  - { offsetInCU: 0xC61C, offset: 0xC61C, size: 0x8, addend: 0x0, symName: __ZNSt3__117__compressed_pairIPP4nodeRNS_9allocatorIS2_EEE5firstB7v160006Ev, symObjAddr: 0x2374, symBinAddr: 0x100004A5C, symSize: 0x24 }
  - { offsetInCU: 0xC641, offset: 0xC641, size: 0x8, addend: 0x0, symName: __ZNKSt3__16vectorIP4nodeNS_9allocatorIS2_EEE17__annotate_deleteB7v160006Ev, symObjAddr: 0x2398, symBinAddr: 0x100004A80, symSize: 0xB8 }
  - { offsetInCU: 0xC666, offset: 0xC666, size: 0x8, addend: 0x0, symName: __ZNSt3__116reverse_iteratorIPP4nodeEC1B7v160006ES3_, symObjAddr: 0x2538, symBinAddr: 0x100004C20, symSize: 0x34 }
  - { offsetInCU: 0xC69D, offset: 0xC69D, size: 0x8, addend: 0x0, symName: __ZNKSt3__116reverse_iteratorIPP4nodeE4baseB7v160006Ev, symObjAddr: 0x256C, symBinAddr: 0x100004C54, symSize: 0x18 }
  - { offsetInCU: 0xC6C2, offset: 0xC6C2, size: 0x8, addend: 0x0, symName: __ZNKSt3__16vectorIP4nodeNS_9allocatorIS2_EEE14__annotate_newB7v160006Em, symObjAddr: 0x25C0, symBinAddr: 0x100004CA8, symSize: 0xAC }
  - { offsetInCU: 0xC6F6, offset: 0xC6F6, size: 0x8, addend: 0x0, symName: __ZNKSt3__16vectorIP4nodeNS_9allocatorIS2_EEE31__annotate_contiguous_containerB7v160006EPKvS7_S7_S7_, symObjAddr: 0x267C, symBinAddr: 0x100004D64, symSize: 0x20 }
  - { offsetInCU: 0xC747, offset: 0xC747, size: 0x8, addend: 0x0, symName: __ZNKSt3__16vectorIP4nodeNS_9allocatorIS2_EEE4dataB7v160006Ev, symObjAddr: 0x269C, symBinAddr: 0x100004D84, symSize: 0x28 }
  - { offsetInCU: 0xC76C, offset: 0xC76C, size: 0x8, addend: 0x0, symName: __ZNKSt3__116reverse_iteratorIPP4nodeEdeB7v160006Ev, symObjAddr: 0x275C, symBinAddr: 0x100004E44, symSize: 0x28 }
  - { offsetInCU: 0xC79F, offset: 0xC79F, size: 0x8, addend: 0x0, symName: __ZNSt3__116reverse_iteratorIPP4nodeEppB7v160006Ev, symObjAddr: 0x2784, symBinAddr: 0x100004E6C, symSize: 0x20 }
  - { offsetInCU: 0xC7C9, offset: 0xC7C9, size: 0x8, addend: 0x0, symName: __ZNSt3__119__to_address_helperINS_16reverse_iteratorIPP4nodeEEvE6__callB7v160006ERKS5_, symObjAddr: 0x281C, symBinAddr: 0x100004F04, symSize: 0x4C }
  - { offsetInCU: 0xC7EC, offset: 0xC7EC, size: 0x8, addend: 0x0, symName: __ZNKSt3__116reverse_iteratorIPP4nodeEptB7v160006Ev, symObjAddr: 0x2868, symBinAddr: 0x100004F50, symSize: 0x24 }
  - { offsetInCU: 0xC834, offset: 0xC834, size: 0x8, addend: 0x0, symName: __ZNKSt3__111__move_loopINS_17_ClassicAlgPolicyEEclB7v160006INS_16reverse_iteratorIPP4nodeEES8_S8_EENS_4pairIT_T1_EESA_T0_SB_, symObjAddr: 0x2B1C, symBinAddr: 0x100005204, symSize: 0xA0 }
  - { offsetInCU: 0xC8A3, offset: 0xC8A3, size: 0x8, addend: 0x0, symName: __ZNSt3__18_IterOpsINS_17_ClassicAlgPolicyEE11__iter_moveB7v160006IRNS_16reverse_iteratorIPP4nodeEEEENS_9enable_ifIXsr12is_referenceIDTdeclsr3stdE7declvalIRT_EEEEE5valueEDTclsr3stdE4movedeclsr3stdE7declvalISC_EEEEE4typeEOSB_, symObjAddr: 0x2D1C, symBinAddr: 0x100005404, symSize: 0x28 }
  - { offsetInCU: 0xC8CF, offset: 0xC8CF, size: 0x8, addend: 0x0, symName: __ZNSt3__18_IterOpsINS_17_ClassicAlgPolicyEE25__validate_iter_referenceB7v160006IRNS_16reverse_iteratorIPP4nodeEEEEvv, symObjAddr: 0x2D44, symBinAddr: 0x10000542C, symSize: 0x4 }
  - { offsetInCU: 0xC8ED, offset: 0xC8ED, size: 0x8, addend: 0x0, symName: __ZNSt3__118__unwrap_iter_implINS_16reverse_iteratorIPP4nodeEELb0EE8__unwrapB7v160006ES5_, symObjAddr: 0x2D48, symBinAddr: 0x100005430, symSize: 0x24 }
  - { offsetInCU: 0xC910, offset: 0xC910, size: 0x8, addend: 0x0, symName: __ZNSt3__14pairINS_16reverse_iteratorIPP4nodeEES5_EC1B7v160006ERKS5_S8_, symObjAddr: 0x2D6C, symBinAddr: 0x100005454, symSize: 0x3C }
  - { offsetInCU: 0xC955, offset: 0xC955, size: 0x8, addend: 0x0, symName: __ZNSt3__14pairINS_16reverse_iteratorIPP4nodeEES5_EC2B7v160006ERKS5_S8_, symObjAddr: 0x2DA8, symBinAddr: 0x100005490, symSize: 0x34 }
  - { offsetInCU: 0xC99A, offset: 0xC99A, size: 0x8, addend: 0x0, symName: __ZNSt3__118__unwrap_iter_implINS_16reverse_iteratorIPP4nodeEELb0EE8__rewrapB7v160006ES5_S5_, symObjAddr: 0x2DDC, symBinAddr: 0x1000054C4, symSize: 0x2C }
  - { offsetInCU: 0xC9C8, offset: 0xC9C8, size: 0x8, addend: 0x0, symName: __ZNSt3__116reverse_iteratorIPP4nodeEC2B7v160006ES3_, symObjAddr: 0x2E08, symBinAddr: 0x1000054F0, symSize: 0x28 }
  - { offsetInCU: 0xC9FF, offset: 0xC9FF, size: 0x8, addend: 0x0, symName: __ZNSt3__114__split_bufferIP4nodeRNS_9allocatorIS2_EEED2Ev, symObjAddr: 0x2E30, symBinAddr: 0x100005518, symSize: 0x80 }
  - { offsetInCU: 0xCA2A, offset: 0xCA2A, size: 0x8, addend: 0x0, symName: __ZNSt3__114__split_bufferIP4nodeRNS_9allocatorIS2_EEE5clearB7v160006Ev, symObjAddr: 0x2EB0, symBinAddr: 0x100005598, symSize: 0x28 }
  - { offsetInCU: 0xCA4F, offset: 0xCA4F, size: 0x8, addend: 0x0, symName: __ZNSt3__116allocator_traitsINS_9allocatorIP4nodeEEE10deallocateB7v160006ERS4_PS3_m, symObjAddr: 0x2ED8, symBinAddr: 0x1000055C0, symSize: 0x34 }
  - { offsetInCU: 0xCA91, offset: 0xCA91, size: 0x8, addend: 0x0, symName: __ZNKSt3__114__split_bufferIP4nodeRNS_9allocatorIS2_EEE8capacityB7v160006Ev, symObjAddr: 0x2F0C, symBinAddr: 0x1000055F4, symSize: 0x40 }
  - { offsetInCU: 0xCAB6, offset: 0xCAB6, size: 0x8, addend: 0x0, symName: __ZNSt3__114__split_bufferIP4nodeRNS_9allocatorIS2_EEE17__destruct_at_endB7v160006EPS2_, symObjAddr: 0x2F4C, symBinAddr: 0x100005634, symSize: 0x2C }
  - { offsetInCU: 0xCAE8, offset: 0xCAE8, size: 0x8, addend: 0x0, symName: __ZNSt3__114__split_bufferIP4nodeRNS_9allocatorIS2_EEE17__destruct_at_endB7v160006EPS2_NS_17integral_constantIbLb0EEE, symObjAddr: 0x2F78, symBinAddr: 0x100005660, symSize: 0x94 }
  - { offsetInCU: 0xCB28, offset: 0xCB28, size: 0x8, addend: 0x0, symName: __ZNSt3__116allocator_traitsINS_9allocatorIP4nodeEEE7destroyB7v160006IS3_vEEvRS4_PT_, symObjAddr: 0x300C, symBinAddr: 0x1000056F4, symSize: 0x2C }
  - { offsetInCU: 0xCB65, offset: 0xCB65, size: 0x8, addend: 0x0, symName: __ZNSt3__19allocatorIP4nodeE7destroyB7v160006EPS2_, symObjAddr: 0x3038, symBinAddr: 0x100005720, symSize: 0x14 }
  - { offsetInCU: 0xCB98, offset: 0xCB98, size: 0x8, addend: 0x0, symName: __ZNSt3__19allocatorIP4nodeE10deallocateB7v160006EPS2_m, symObjAddr: 0x304C, symBinAddr: 0x100005734, symSize: 0x70 }
  - { offsetInCU: 0xCBD9, offset: 0xCBD9, size: 0x8, addend: 0x0, symName: __ZNKSt3__114__split_bufferIP4nodeRNS_9allocatorIS2_EEE9__end_capB7v160006Ev, symObjAddr: 0x3138, symBinAddr: 0x100005820, symSize: 0x28 }
  - { offsetInCU: 0xCBFE, offset: 0xCBFE, size: 0x8, addend: 0x0, symName: __ZNKSt3__117__compressed_pairIPP4nodeRNS_9allocatorIS2_EEE5firstB7v160006Ev, symObjAddr: 0x3160, symBinAddr: 0x100005848, symSize: 0x24 }
  - { offsetInCU: 0xCC23, offset: 0xCC23, size: 0x8, addend: 0x0, symName: __ZNSt3__111char_traitsIcE6lengthEPKc, symObjAddr: 0x3378, symBinAddr: 0x100005A60, symSize: 0x48 }
  - { offsetInCU: 0xCC64, offset: 0xCC64, size: 0x8, addend: 0x0, symName: __ZNKSt3__113basic_ostreamIcNS_11char_traitsIcEEE6sentrycvbB7v160006Ev, symObjAddr: 0x33C0, symBinAddr: 0x100005AA8, symSize: 0x1C }
  - { offsetInCU: 0xCC89, offset: 0xCC89, size: 0x8, addend: 0x0, symName: __ZNSt3__119ostreambuf_iteratorIcNS_11char_traitsIcEEEC1B7v160006ERNS_13basic_ostreamIcS2_EE, symObjAddr: 0x3624, symBinAddr: 0x100005D0C, symSize: 0x34 }
  - { offsetInCU: 0xCCC0, offset: 0xCCC0, size: 0x8, addend: 0x0, symName: __ZNKSt3__18ios_base5flagsB7v160006Ev, symObjAddr: 0x3658, symBinAddr: 0x100005D40, symSize: 0x18 }
  - { offsetInCU: 0xCCE6, offset: 0xCCE6, size: 0x8, addend: 0x0, symName: __ZNKSt3__19basic_iosIcNS_11char_traitsIcEEE4fillB7v160006Ev, symObjAddr: 0x3670, symBinAddr: 0x100005D58, symSize: 0x64 }
  - { offsetInCU: 0xCD0D, offset: 0xCD0D, size: 0x8, addend: 0x0, symName: __ZNKSt3__119ostreambuf_iteratorIcNS_11char_traitsIcEEE6failedB7v160006Ev, symObjAddr: 0x36D4, symBinAddr: 0x100005DBC, symSize: 0x24 }
  - { offsetInCU: 0xCD32, offset: 0xCD32, size: 0x8, addend: 0x0, symName: __ZNSt3__19basic_iosIcNS_11char_traitsIcEEE8setstateB7v160006Ej, symObjAddr: 0x36F8, symBinAddr: 0x100005DE0, symSize: 0x2C }
  - { offsetInCU: 0xCD66, offset: 0xCD66, size: 0x8, addend: 0x0, symName: __ZNKSt3__18ios_base5widthB7v160006Ev, symObjAddr: 0x3724, symBinAddr: 0x100005E0C, symSize: 0x18 }
  - { offsetInCU: 0xCD8D, offset: 0xCD8D, size: 0x8, addend: 0x0, symName: __ZNSt3__115basic_streambufIcNS_11char_traitsIcEEE5sputnB7v160006EPKcl, symObjAddr: 0x373C, symBinAddr: 0x100005E24, symSize: 0x3C }
  - { offsetInCU: 0xCDCE, offset: 0xCDCE, size: 0x8, addend: 0x0, symName: __ZNSt3__112basic_stringIcNS_11char_traitsIcEENS_9allocatorIcEEEC1B7v160006Emc, symObjAddr: 0x3778, symBinAddr: 0x100005E60, symSize: 0x3C }
  - { offsetInCU: 0xCE15, offset: 0xCE15, size: 0x8, addend: 0x0, symName: __ZNKSt3__112basic_stringIcNS_11char_traitsIcEENS_9allocatorIcEEE4dataB7v160006Ev, symObjAddr: 0x37B4, symBinAddr: 0x100005E9C, symSize: 0x28 }
  - { offsetInCU: 0xCE3A, offset: 0xCE3A, size: 0x8, addend: 0x0, symName: __ZNSt3__18ios_base5widthB7v160006El, symObjAddr: 0x37DC, symBinAddr: 0x100005EC4, symSize: 0x2C }
  - { offsetInCU: 0xCE7F, offset: 0xCE7F, size: 0x8, addend: 0x0, symName: __ZNSt3__112basic_stringIcNS_11char_traitsIcEENS_9allocatorIcEEEC2B7v160006Emc, symObjAddr: 0x3808, symBinAddr: 0x100005EF0, symSize: 0x54 }
  - { offsetInCU: 0xCEC6, offset: 0xCEC6, size: 0x8, addend: 0x0, symName: __ZNKSt3__112basic_stringIcNS_11char_traitsIcEENS_9allocatorIcEEE13__get_pointerB7v160006Ev, symObjAddr: 0x3870, symBinAddr: 0x100005F58, symSize: 0x54 }
  - { offsetInCU: 0xCEEB, offset: 0xCEEB, size: 0x8, addend: 0x0, symName: __ZNKSt3__112basic_stringIcNS_11char_traitsIcEENS_9allocatorIcEEE9__is_longB7v160006Ev, symObjAddr: 0x38C4, symBinAddr: 0x100005FAC, symSize: 0x74 }
  - { offsetInCU: 0xCF10, offset: 0xCF10, size: 0x8, addend: 0x0, symName: __ZNKSt3__112basic_stringIcNS_11char_traitsIcEENS_9allocatorIcEEE18__get_long_pointerB7v160006Ev, symObjAddr: 0x3938, symBinAddr: 0x100006020, symSize: 0x28 }
  - { offsetInCU: 0xCF35, offset: 0xCF35, size: 0x8, addend: 0x0, symName: __ZNKSt3__112basic_stringIcNS_11char_traitsIcEENS_9allocatorIcEEE19__get_short_pointerB7v160006Ev, symObjAddr: 0x3960, symBinAddr: 0x100006048, symSize: 0x28 }
  - { offsetInCU: 0xCF5A, offset: 0xCF5A, size: 0x8, addend: 0x0, symName: __ZNKSt3__117__compressed_pairINS_12basic_stringIcNS_11char_traitsIcEENS_9allocatorIcEEE5__repES5_E5firstB7v160006Ev, symObjAddr: 0x3988, symBinAddr: 0x100006070, symSize: 0x24 }
  - { offsetInCU: 0xCF7F, offset: 0xCF7F, size: 0x8, addend: 0x0, symName: __ZNKSt3__122__compressed_pair_elemINS_12basic_stringIcNS_11char_traitsIcEENS_9allocatorIcEEE5__repELi0ELb0EE5__getB7v160006Ev, symObjAddr: 0x39AC, symBinAddr: 0x100006094, symSize: 0x14 }
  - { offsetInCU: 0xCFA4, offset: 0xCFA4, size: 0x8, addend: 0x0, symName: __ZNSt3__114pointer_traitsIPKcE10pointer_toB7v160006ERS1_, symObjAddr: 0x39C0, symBinAddr: 0x1000060A8, symSize: 0x14 }
  - { offsetInCU: 0xCFC7, offset: 0xCFC7, size: 0x8, addend: 0x0, symName: __ZNSt3__119ostreambuf_iteratorIcNS_11char_traitsIcEEEC2B7v160006ERNS_13basic_ostreamIcS2_EE, symObjAddr: 0x39D4, symBinAddr: 0x1000060BC, symSize: 0x68 }
  - { offsetInCU: 0xCFFD, offset: 0xCFFD, size: 0x8, addend: 0x0, symName: __ZNKSt3__19basic_iosIcNS_11char_traitsIcEEE5rdbufB7v160006Ev, symObjAddr: 0x3A3C, symBinAddr: 0x100006124, symSize: 0x24 }
  - { offsetInCU: 0xD024, offset: 0xD024, size: 0x8, addend: 0x0, symName: __ZNKSt3__18ios_base5rdbufB7v160006Ev, symObjAddr: 0x3A60, symBinAddr: 0x100006148, symSize: 0x18 }
  - { offsetInCU: 0xD049, offset: 0xD049, size: 0x8, addend: 0x0, symName: __ZNSt3__111char_traitsIcE11eq_int_typeEii, symObjAddr: 0x3A78, symBinAddr: 0x100006160, symSize: 0x28 }
  - { offsetInCU: 0xD07A, offset: 0xD07A, size: 0x8, addend: 0x0, symName: __ZNSt3__111char_traitsIcE3eofEv, symObjAddr: 0x3AA0, symBinAddr: 0x100006188, symSize: 0x8 }
  - { offsetInCU: 0xD08D, offset: 0xD08D, size: 0x8, addend: 0x0, symName: __ZNKSt3__19basic_iosIcNS_11char_traitsIcEEE5widenB7v160006Ec, symObjAddr: 0x3AA8, symBinAddr: 0x100006190, symSize: 0x8C }
  - { offsetInCU: 0xD0FA, offset: 0xD0FA, size: 0x8, addend: 0x0, symName: __ZNKSt3__15ctypeIcE5widenB7v160006Ec, symObjAddr: 0x3B60, symBinAddr: 0x100006248, symSize: 0x38 }
  - { offsetInCU: 0xD12D, offset: 0xD12D, size: 0x8, addend: 0x0, symName: __ZNSt3__18ios_base8setstateB7v160006Ej, symObjAddr: 0x3B98, symBinAddr: 0x100006280, symSize: 0x34 }
  - { offsetInCU: 0xD163, offset: 0xD163, size: 0x8, addend: 0x0, symName: __ZNKSt3__112basic_stringIcNS_11char_traitsIcEENS_9allocatorIcEEE4sizeB7v160006Ev, symObjAddr: 0x3BF0, symBinAddr: 0x1000062D8, symSize: 0x54 }
  - { offsetInCU: 0xD188, offset: 0xD188, size: 0x8, addend: 0x0, symName: __ZNKSt3__112basic_stringIcNS_11char_traitsIcEENS_9allocatorIcEEE15__get_long_sizeB7v160006Ev, symObjAddr: 0x3C44, symBinAddr: 0x10000632C, symSize: 0x28 }
  - { offsetInCU: 0xD1AD, offset: 0xD1AD, size: 0x8, addend: 0x0, symName: __ZNKSt3__112basic_stringIcNS_11char_traitsIcEENS_9allocatorIcEEE16__get_short_sizeB7v160006Ev, symObjAddr: 0x3C6C, symBinAddr: 0x100006354, symSize: 0x34 }
  - { offsetInCU: 0xD1D2, offset: 0xD1D2, size: 0x8, addend: 0x0, symName: __ZNSt3__16vectorIP4nodeNS_9allocatorIS2_EEEC2B7v160006Ev, symObjAddr: 0x3CA0, symBinAddr: 0x100006388, symSize: 0x4C }
  - { offsetInCU: 0xD1FB, offset: 0xD1FB, size: 0x8, addend: 0x0, symName: __ZNSt3__117__compressed_pairIPP4nodeNS_9allocatorIS2_EEEC1B7v160006IDnNS_18__default_init_tagEEEOT_OT0_, symObjAddr: 0x3CEC, symBinAddr: 0x1000063D4, symSize: 0x3C }
  - { offsetInCU: 0xD252, offset: 0xD252, size: 0x8, addend: 0x0, symName: __ZNSt3__117__compressed_pairIPP4nodeNS_9allocatorIS2_EEEC2B7v160006IDnNS_18__default_init_tagEEEOT_OT0_, symObjAddr: 0x3D38, symBinAddr: 0x100006420, symSize: 0x40 }
  - { offsetInCU: 0xD2A9, offset: 0xD2A9, size: 0x8, addend: 0x0, symName: __ZNSt3__122__compressed_pair_elemINS_9allocatorIP4nodeEELi1ELb1EEC2B7v160006ENS_18__default_init_tagE, symObjAddr: 0x3D78, symBinAddr: 0x100006460, symSize: 0x2C }
  - { offsetInCU: 0xD2DD, offset: 0xD2DD, size: 0x8, addend: 0x0, symName: __ZNSt3__19allocatorIP4nodeEC2B7v160006Ev, symObjAddr: 0x3DA4, symBinAddr: 0x10000648C, symSize: 0x2C }
  - { offsetInCU: 0xD306, offset: 0xD306, size: 0x8, addend: 0x0, symName: __ZNSt3__116__non_trivial_ifILb1ENS_9allocatorIP4nodeEEEC2B7v160006Ev, symObjAddr: 0x3DD0, symBinAddr: 0x1000064B8, symSize: 0x14 }
  - { offsetInCU: 0xD32F, offset: 0xD32F, size: 0x8, addend: 0x0, symName: __ZNSt3__16vectorIP4nodeNS_9allocatorIS2_EEED2B7v160006Ev, symObjAddr: 0x3DE4, symBinAddr: 0x1000064CC, symSize: 0x3C }
  - { offsetInCU: 0xD358, offset: 0xD358, size: 0x8, addend: 0x0, symName: __ZNSt3__16vectorIP4nodeNS_9allocatorIS2_EEE16__destroy_vectorC1ERS5_, symObjAddr: 0x3E20, symBinAddr: 0x100006508, symSize: 0x34 }
  - { offsetInCU: 0xD390, offset: 0xD390, size: 0x8, addend: 0x0, symName: __ZNSt3__16vectorIP4nodeNS_9allocatorIS2_EEE16__destroy_vectorclB7v160006Ev, symObjAddr: 0x3E54, symBinAddr: 0x10000653C, symSize: 0x9C }
  - { offsetInCU: 0xD3B5, offset: 0xD3B5, size: 0x8, addend: 0x0, symName: __ZNSt3__16vectorIP4nodeNS_9allocatorIS2_EEE16__destroy_vectorC2ERS5_, symObjAddr: 0x3EF0, symBinAddr: 0x1000065D8, symSize: 0x20 }
  - { offsetInCU: 0xD3ED, offset: 0xD3ED, size: 0x8, addend: 0x0, symName: __ZNSt3__16vectorIP4nodeNS_9allocatorIS2_EEE7__clearB7v160006Ev, symObjAddr: 0x3F20, symBinAddr: 0x100006608, symSize: 0x28 }
  - { offsetInCU: 0xD412, offset: 0xD412, size: 0x8, addend: 0x0, symName: __ZNSt3__16vectorIP4nodeNS_9allocatorIS2_EEE22__base_destruct_at_endB7v160006EPS2_, symObjAddr: 0x3F48, symBinAddr: 0x100006630, symSize: 0xA0 }
  - { offsetInCU: 0xD455, offset: 0xD455, size: 0x8, addend: 0x0, symName: __ZNSt3__112basic_stringIcNS_11char_traitsIcEENS_9allocatorIcEEEC2B7v160006IDnEEPKc, symObjAddr: 0x3FE8, symBinAddr: 0x1000066D0, symSize: 0x60 }
  - { offsetInCU: 0xD492, offset: 0xD492, size: 0x8, addend: 0x0, symName: __ZNSt3__16vectorI4nodeNS_9allocatorIS1_EEEC2Em, symObjAddr: 0x4048, symBinAddr: 0x100006730, symSize: 0xE8 }
  - { offsetInCU: 0xD4E1, offset: 0xD4E1, size: 0x8, addend: 0x0, symName: __ZNSt3__117__compressed_pairIP4nodeNS_9allocatorIS1_EEEC1B7v160006IDnNS_18__default_init_tagEEEOT_OT0_, symObjAddr: 0x4130, symBinAddr: 0x100006818, symSize: 0x3C }
  - { offsetInCU: 0xD538, offset: 0xD538, size: 0x8, addend: 0x0, symName: __ZNSt3__16vectorI4nodeNS_9allocatorIS1_EEE16__destroy_vectorC1ERS4_, symObjAddr: 0x41AC, symBinAddr: 0x100006894, symSize: 0x34 }
  - { offsetInCU: 0xD570, offset: 0xD570, size: 0x8, addend: 0x0, symName: __ZNSt3__16vectorI4nodeNS_9allocatorIS1_EEE11__vallocateB7v160006Em, symObjAddr: 0x41F0, symBinAddr: 0x1000068D8, symSize: 0xB4 }
  - { offsetInCU: 0xD5B2, offset: 0xD5B2, size: 0x8, addend: 0x0, symName: __ZNSt3__16vectorI4nodeNS_9allocatorIS1_EEE18__construct_at_endEm, symObjAddr: 0x42A4, symBinAddr: 0x10000698C, symSize: 0xD0 }
  - { offsetInCU: 0xD624, offset: 0xD624, size: 0x8, addend: 0x0, symName: __ZNSt3__128__exception_guard_exceptionsINS_6vectorI4nodeNS_9allocatorIS2_EEE16__destroy_vectorEE10__completeB7v160006Ev, symObjAddr: 0x4374, symBinAddr: 0x100006A5C, symSize: 0x1C }
  - { offsetInCU: 0xD649, offset: 0xD649, size: 0x8, addend: 0x0, symName: __ZNSt3__128__exception_guard_exceptionsINS_6vectorI4nodeNS_9allocatorIS2_EEE16__destroy_vectorEED1B7v160006Ev, symObjAddr: 0x4390, symBinAddr: 0x100006A78, symSize: 0x2C }
  - { offsetInCU: 0xD672, offset: 0xD672, size: 0x8, addend: 0x0, symName: __ZNSt3__117__compressed_pairIP4nodeNS_9allocatorIS1_EEEC2B7v160006IDnNS_18__default_init_tagEEEOT_OT0_, symObjAddr: 0x43BC, symBinAddr: 0x100006AA4, symSize: 0x40 }
  - { offsetInCU: 0xD6C9, offset: 0xD6C9, size: 0x8, addend: 0x0, symName: __ZNSt3__122__compressed_pair_elemIP4nodeLi0ELb0EEC2B7v160006IDnvEEOT_, symObjAddr: 0x43FC, symBinAddr: 0x100006AE4, symSize: 0x1C }
  - { offsetInCU: 0xD70A, offset: 0xD70A, size: 0x8, addend: 0x0, symName: __ZNSt3__122__compressed_pair_elemINS_9allocatorI4nodeEELi1ELb1EEC2B7v160006ENS_18__default_init_tagE, symObjAddr: 0x4418, symBinAddr: 0x100006B00, symSize: 0x2C }
  - { offsetInCU: 0xD73E, offset: 0xD73E, size: 0x8, addend: 0x0, symName: __ZNSt3__19allocatorI4nodeEC2B7v160006Ev, symObjAddr: 0x4444, symBinAddr: 0x100006B2C, symSize: 0x2C }
  - { offsetInCU: 0xD767, offset: 0xD767, size: 0x8, addend: 0x0, symName: __ZNSt3__116__non_trivial_ifILb1ENS_9allocatorI4nodeEEEC2B7v160006Ev, symObjAddr: 0x4470, symBinAddr: 0x100006B58, symSize: 0x14 }
  - { offsetInCU: 0xD790, offset: 0xD790, size: 0x8, addend: 0x0, symName: __ZNSt3__128__exception_guard_exceptionsINS_6vectorI4nodeNS_9allocatorIS2_EEE16__destroy_vectorEEC1B7v160006ES6_, symObjAddr: 0x4484, symBinAddr: 0x100006B6C, symSize: 0x34 }
  - { offsetInCU: 0xD7C7, offset: 0xD7C7, size: 0x8, addend: 0x0, symName: __ZNSt3__128__exception_guard_exceptionsINS_6vectorI4nodeNS_9allocatorIS2_EEE16__destroy_vectorEEC2B7v160006ES6_, symObjAddr: 0x44B8, symBinAddr: 0x100006BA0, symSize: 0x24 }
  - { offsetInCU: 0xD7FE, offset: 0xD7FE, size: 0x8, addend: 0x0, symName: __ZNSt3__16vectorI4nodeNS_9allocatorIS1_EEE16__destroy_vectorC2ERS4_, symObjAddr: 0x44DC, symBinAddr: 0x100006BC4, symSize: 0x20 }
  - { offsetInCU: 0xD835, offset: 0xD835, size: 0x8, addend: 0x0, symName: __ZNKSt3__16vectorI4nodeNS_9allocatorIS1_EEE8max_sizeEv, symObjAddr: 0x44FC, symBinAddr: 0x100006BE4, symSize: 0x74 }
  - { offsetInCU: 0xD85C, offset: 0xD85C, size: 0x8, addend: 0x0, symName: __ZNKSt3__16vectorI4nodeNS_9allocatorIS1_EEE20__throw_length_errorB7v160006Ev, symObjAddr: 0x4570, symBinAddr: 0x100006C58, symSize: 0x1C }
  - { offsetInCU: 0xD881, offset: 0xD881, size: 0x8, addend: 0x0, symName: __ZNSt3__16vectorI4nodeNS_9allocatorIS1_EEE7__allocB7v160006Ev, symObjAddr: 0x45CC, symBinAddr: 0x100006CB4, symSize: 0x28 }
  - { offsetInCU: 0xD8A6, offset: 0xD8A6, size: 0x8, addend: 0x0, symName: __ZNSt3__16vectorI4nodeNS_9allocatorIS1_EEE9__end_capB7v160006Ev, symObjAddr: 0x45F4, symBinAddr: 0x100006CDC, symSize: 0x28 }
  - { offsetInCU: 0xD8CB, offset: 0xD8CB, size: 0x8, addend: 0x0, symName: __ZNKSt3__16vectorI4nodeNS_9allocatorIS1_EEE14__annotate_newB7v160006Em, symObjAddr: 0x461C, symBinAddr: 0x100006D04, symSize: 0xC8 }
  - { offsetInCU: 0xD909, offset: 0xD909, size: 0x8, addend: 0x0, symName: __ZNSt3__116allocator_traitsINS_9allocatorI4nodeEEE8max_sizeB7v160006IS3_vEEmRKS3_, symObjAddr: 0x46E4, symBinAddr: 0x100006DCC, symSize: 0x24 }
  - { offsetInCU: 0xD937, offset: 0xD937, size: 0x8, addend: 0x0, symName: __ZNKSt3__16vectorI4nodeNS_9allocatorIS1_EEE7__allocB7v160006Ev, symObjAddr: 0x4708, symBinAddr: 0x100006DF0, symSize: 0x28 }
  - { offsetInCU: 0xD95C, offset: 0xD95C, size: 0x8, addend: 0x0, symName: __ZNKSt3__19allocatorI4nodeE8max_sizeB7v160006Ev, symObjAddr: 0x4730, symBinAddr: 0x100006E18, symSize: 0x20 }
  - { offsetInCU: 0xD981, offset: 0xD981, size: 0x8, addend: 0x0, symName: __ZNKSt3__117__compressed_pairIP4nodeNS_9allocatorIS1_EEE6secondB7v160006Ev, symObjAddr: 0x4750, symBinAddr: 0x100006E38, symSize: 0x24 }
  - { offsetInCU: 0xD9A6, offset: 0xD9A6, size: 0x8, addend: 0x0, symName: __ZNKSt3__122__compressed_pair_elemINS_9allocatorI4nodeEELi1ELb1EE5__getB7v160006Ev, symObjAddr: 0x4774, symBinAddr: 0x100006E5C, symSize: 0x14 }
  - { offsetInCU: 0xD9CB, offset: 0xD9CB, size: 0x8, addend: 0x0, symName: __ZNSt3__19allocatorI4nodeE8allocateB7v160006Em, symObjAddr: 0x4788, symBinAddr: 0x100006E70, symSize: 0x8C }
  - { offsetInCU: 0xD9FE, offset: 0xD9FE, size: 0x8, addend: 0x0, symName: __ZNSt3__117__compressed_pairIP4nodeNS_9allocatorIS1_EEE6secondB7v160006Ev, symObjAddr: 0x4814, symBinAddr: 0x100006EFC, symSize: 0x24 }
  - { offsetInCU: 0xDA23, offset: 0xDA23, size: 0x8, addend: 0x0, symName: __ZNSt3__122__compressed_pair_elemINS_9allocatorI4nodeEELi1ELb1EE5__getB7v160006Ev, symObjAddr: 0x4838, symBinAddr: 0x100006F20, symSize: 0x14 }
  - { offsetInCU: 0xDA48, offset: 0xDA48, size: 0x8, addend: 0x0, symName: __ZNSt3__117__compressed_pairIP4nodeNS_9allocatorIS1_EEE5firstB7v160006Ev, symObjAddr: 0x484C, symBinAddr: 0x100006F34, symSize: 0x24 }
  - { offsetInCU: 0xDA6D, offset: 0xDA6D, size: 0x8, addend: 0x0, symName: __ZNSt3__122__compressed_pair_elemIP4nodeLi0ELb0EE5__getB7v160006Ev, symObjAddr: 0x4870, symBinAddr: 0x100006F58, symSize: 0x14 }
  - { offsetInCU: 0xDA92, offset: 0xDA92, size: 0x8, addend: 0x0, symName: __ZNKSt3__16vectorI4nodeNS_9allocatorIS1_EEE31__annotate_contiguous_containerB7v160006EPKvS6_S6_S6_, symObjAddr: 0x4884, symBinAddr: 0x100006F6C, symSize: 0x20 }
  - { offsetInCU: 0xDAE3, offset: 0xDAE3, size: 0x8, addend: 0x0, symName: __ZNKSt3__16vectorI4nodeNS_9allocatorIS1_EEE4dataB7v160006Ev, symObjAddr: 0x48A4, symBinAddr: 0x100006F8C, symSize: 0x28 }
  - { offsetInCU: 0xDB08, offset: 0xDB08, size: 0x8, addend: 0x0, symName: __ZNKSt3__16vectorI4nodeNS_9allocatorIS1_EEE8capacityB7v160006Ev, symObjAddr: 0x48CC, symBinAddr: 0x100006FB4, symSize: 0x40 }
  - { offsetInCU: 0xDB2D, offset: 0xDB2D, size: 0x8, addend: 0x0, symName: __ZNKSt3__16vectorI4nodeNS_9allocatorIS1_EEE9__end_capB7v160006Ev, symObjAddr: 0x4920, symBinAddr: 0x100007008, symSize: 0x28 }
  - { offsetInCU: 0xDB52, offset: 0xDB52, size: 0x8, addend: 0x0, symName: __ZNKSt3__117__compressed_pairIP4nodeNS_9allocatorIS1_EEE5firstB7v160006Ev, symObjAddr: 0x4948, symBinAddr: 0x100007030, symSize: 0x24 }
  - { offsetInCU: 0xDB77, offset: 0xDB77, size: 0x8, addend: 0x0, symName: __ZNKSt3__122__compressed_pair_elemIP4nodeLi0ELb0EE5__getB7v160006Ev, symObjAddr: 0x496C, symBinAddr: 0x100007054, symSize: 0x14 }
  - { offsetInCU: 0xDBB5, offset: 0xDBB5, size: 0x8, addend: 0x0, symName: __ZNSt3__16vectorI4nodeNS_9allocatorIS1_EEE21_ConstructTransactionC1B7v160006ERS4_m, symObjAddr: 0x4980, symBinAddr: 0x100007068, symSize: 0x3C }
  - { offsetInCU: 0xDBFC, offset: 0xDBFC, size: 0x8, addend: 0x0, symName: __ZNSt3__116allocator_traitsINS_9allocatorI4nodeEEE9constructB7v160006IS2_JEvEEvRS3_PT_DpOT0_, symObjAddr: 0x49BC, symBinAddr: 0x1000070A4, symSize: 0x2C }
  - { offsetInCU: 0xDC3E, offset: 0xDC3E, size: 0x8, addend: 0x0, symName: __ZNSt3__16vectorI4nodeNS_9allocatorIS1_EEE21_ConstructTransactionD1B7v160006Ev, symObjAddr: 0x49E8, symBinAddr: 0x1000070D0, symSize: 0x2C }
  - { offsetInCU: 0xDC67, offset: 0xDC67, size: 0x8, addend: 0x0, symName: __ZNSt3__16vectorI4nodeNS_9allocatorIS1_EEE21_ConstructTransactionC2B7v160006ERS4_m, symObjAddr: 0x4A14, symBinAddr: 0x1000070FC, symSize: 0x4C }
  - { offsetInCU: 0xDCAE, offset: 0xDCAE, size: 0x8, addend: 0x0, symName: __ZNSt3__19allocatorI4nodeE9constructB7v160006IS1_JEEEvPT_DpOT0_, symObjAddr: 0x4A60, symBinAddr: 0x100007148, symSize: 0x3C }
  - { offsetInCU: 0xDCEF, offset: 0xDCEF, size: 0x8, addend: 0x0, symName: __ZNSt3__16vectorI4nodeNS_9allocatorIS1_EEE21_ConstructTransactionD2B7v160006Ev, symObjAddr: 0x4A9C, symBinAddr: 0x100007184, symSize: 0x20 }
  - { offsetInCU: 0xDD18, offset: 0xDD18, size: 0x8, addend: 0x0, symName: __ZNSt3__128__exception_guard_exceptionsINS_6vectorI4nodeNS_9allocatorIS2_EEE16__destroy_vectorEED2B7v160006Ev, symObjAddr: 0x4ABC, symBinAddr: 0x1000071A4, symSize: 0x48 }
  - { offsetInCU: 0xDD41, offset: 0xDD41, size: 0x8, addend: 0x0, symName: __ZNSt3__16vectorI4nodeNS_9allocatorIS1_EEE16__destroy_vectorclB7v160006Ev, symObjAddr: 0x4B04, symBinAddr: 0x1000071EC, symSize: 0x9C }
  - { offsetInCU: 0xDD66, offset: 0xDD66, size: 0x8, addend: 0x0, symName: __ZNKSt3__16vectorI4nodeNS_9allocatorIS1_EEE17__annotate_deleteB7v160006Ev, symObjAddr: 0x4BA0, symBinAddr: 0x100007288, symSize: 0xD4 }
  - { offsetInCU: 0xDD8B, offset: 0xDD8B, size: 0x8, addend: 0x0, symName: __ZNSt3__16vectorI4nodeNS_9allocatorIS1_EEE7__clearB7v160006Ev, symObjAddr: 0x4C84, symBinAddr: 0x10000736C, symSize: 0x28 }
  - { offsetInCU: 0xDDB0, offset: 0xDDB0, size: 0x8, addend: 0x0, symName: __ZNSt3__116allocator_traitsINS_9allocatorI4nodeEEE10deallocateB7v160006ERS3_PS2_m, symObjAddr: 0x4CAC, symBinAddr: 0x100007394, symSize: 0x34 }
  - { offsetInCU: 0xDDF2, offset: 0xDDF2, size: 0x8, addend: 0x0, symName: __ZNKSt3__16vectorI4nodeNS_9allocatorIS1_EEE4sizeB7v160006Ev, symObjAddr: 0x4CE0, symBinAddr: 0x1000073C8, symSize: 0x28 }
  - { offsetInCU: 0xDE17, offset: 0xDE17, size: 0x8, addend: 0x0, symName: __ZNSt3__16vectorI4nodeNS_9allocatorIS1_EEE22__base_destruct_at_endB7v160006EPS1_, symObjAddr: 0x4D08, symBinAddr: 0x1000073F0, symSize: 0xA0 }
  - { offsetInCU: 0xDE5A, offset: 0xDE5A, size: 0x8, addend: 0x0, symName: __ZNSt3__116allocator_traitsINS_9allocatorI4nodeEEE7destroyB7v160006IS2_vEEvRS3_PT_, symObjAddr: 0x4DA8, symBinAddr: 0x100007490, symSize: 0x2C }
  - { offsetInCU: 0xDE97, offset: 0xDE97, size: 0x8, addend: 0x0, symName: __ZNSt3__19allocatorI4nodeE7destroyB7v160006EPS1_, symObjAddr: 0x4DD4, symBinAddr: 0x1000074BC, symSize: 0x28 }
  - { offsetInCU: 0xDECA, offset: 0xDECA, size: 0x8, addend: 0x0, symName: __ZN4nodeD1Ev, symObjAddr: 0x4DFC, symBinAddr: 0x1000074E4, symSize: 0x2C }
  - { offsetInCU: 0xDEF5, offset: 0xDEF5, size: 0x8, addend: 0x0, symName: __ZN4nodeD2Ev, symObjAddr: 0x4E28, symBinAddr: 0x100007510, symSize: 0x68 }
  - { offsetInCU: 0xDF20, offset: 0xDF20, size: 0x8, addend: 0x0, symName: __ZNSt3__19allocatorI4nodeE10deallocateB7v160006EPS1_m, symObjAddr: 0x4E90, symBinAddr: 0x100007578, symSize: 0x74 }
  - { offsetInCU: 0xDF61, offset: 0xDF61, size: 0x8, addend: 0x0, symName: __ZNSt3__16vectorI4nodeNS_9allocatorIS1_EEED2B7v160006Ev, symObjAddr: 0x4F04, symBinAddr: 0x1000075EC, symSize: 0x3C }
...
